Certificate:
    Data:
        Version: 3 (0x2)
        Serial Number: 1 (0x1)
    Signature Algorithm: sha256WithRSAEncryption
        Issuer: C=CN, ST=GD, L=ShenZhen, O=GlobaleGrow Inc., OU=TKSTORM.COM, CN=TK.ROOT CA/emailAddress=tkstorm1988@gmail.com
        Validity
            Not Before: Apr 27 11:08:47 2019 GMT
            Not After : Jan 21 11:08:47 2022 GMT
        Subject: C=CN, ST=GD, L=ShenZhen, O=GlobaleGrow Inc., OU=TKSTORM.COM, CN=Tech Development.
        Subject Public Key Info:
            Public Key Algorithm: rsaEncryption
                Public-Key: (2048 bit)
                Modulus:
                    00:d5:50:c1:73:54:bc:77:b4:02:4b:56:a8:06:71:
                    a0:32:9c:04:3c:31:6d:0d:24:40:7f:9e:9b:9c:b0:
                    69:92:7e:87:06:fa:77:0d:c4:bf:29:11:c1:a4:17:
                    2d:4f:72:59:f8:e5:63:cd:90:a1:e8:a7:47:05:1f:
                    da:78:7c:a5:3a:66:aa:75:a7:63:64:3b:19:8c:16:
                    ae:0c:5f:6f:b2:fe:cd:9e:d1:24:2b:7a:a4:b3:8a:
                    3e:40:4a:f3:e6:94:11:fc:a7:10:fb:e0:3a:1f:75:
                    44:56:5e:fa:dc:38:19:db:71:69:51:b2:ef:4b:cd:
                    0e:9e:88:6e:50:8a:bc:c3:83:ea:7f:be:55:d3:8f:
                    37:40:8d:7a:f9:56:79:7e:38:a0:98:6c:84:52:b5:
                    cc:bc:75:3f:31:9f:59:b4:d0:79:c7:14:aa:3e:88:
                    21:d3:03:91:65:08:8c:fb:fb:b4:bc:84:2e:d2:64:
                    9b:ff:5e:58:74:cb:a9:1d:90:03:b1:63:11:3f:c6:
                    50:61:da:7c:35:f1:e2:c2:3a:57:96:88:09:d2:d7:
                    44:7f:e1:ac:83:0f:03:3b:62:cf:f2:cd:69:21:69:
                    57:b8:77:d4:3f:0a:52:e2:a7:09:27:a6:7d:f1:1f:
                    90:2f:d5:e3:58:a7:cd:56:96:54:96:ef:a8:94:87:
                    40:9b
                Exponent: 65537 (0x10001)
        X509v3 extensions:
            X509v3 Subject Key Identifier: 
                18:DE:27:13:4B:D8:38:26:E0:8E:A9:7F:D2:43:E6:C6:35:FD:60:FB
            X509v3 Authority Key Identifier: 
                keyid:B4:D3:90:86:AE:76:08:83:5A:DE:59:F1:C8:36:44:F8:76:E1:FD:85

            X509v3 Basic Constraints: 
                CA:FALSE
            X509v3 Key Usage: 
                Digital Signature, Key Encipherment
            X509v3 Subject Alternative Name: 
                DNS:tkstorm.cc, DNS:www.tkstorm.cc, DNS:mail.tkstorm.cc
            Netscape Comment: 
                OpenSSL Generated Certificate
    Signature Algorithm: sha256WithRSAEncryption
         6f:99:0d:2b:da:86:00:f8:fe:0e:5a:a3:9f:f2:df:0d:7e:ca:
         f4:23:b2:cf:ac:20:c7:0e:32:d7:b8:cf:46:ed:29:2b:80:b0:
         81:8b:07:50:c8:18:9c:e7:7c:33:5a:26:d5:03:b0:e2:4e:45:
         2a:31:7a:b8:67:ca:0b:7d:34:82:26:26:9d:e4:05:bd:05:bc:
         71:de:6b:d6:99:37:f8:89:5c:02:7d:3b:e5:17:0d:97:90:bc:
         e1:5c:78:c6:19:f7:fd:71:ad:f7:95:3c:c2:4c:93:8c:46:a3:
         ac:50:75:9a:57:80:21:2c:7f:b8:6c:27:e9:56:e0:21:64:da:
         4b:db
-----BEGIN CERTIFICATE-----
MIID0DCCAzmgAwIBAgIBATANBgkqhkiG9w0BAQsFADCBmTELMAkGA1UEBhMCQ04x
CzAJBgNVBAgMAkdEMREwDwYDVQQHDAhTaGVuWmhlbjEZMBcGA1UECgwQR2xvYmFs
ZUdyb3cgSW5jLjEUMBIGA1UECwwLVEtTVE9STS5DT00xEzARBgNVBAMMClRLLlJP
T1QgQ0ExJDAiBgkqhkiG9w0BCQEWFXRrc3Rvcm0xOTg4QGdtYWlsLmNvbTAeFw0x
OTA0MjcxMTA4NDdaFw0yMjAxMjExMTA4NDdaMHoxCzAJBgNVBAYTAkNOMQswCQYD
VQQIDAJHRDERMA8GA1UEBwwIU2hlblpoZW4xGTAXBgNVBAoMEEdsb2JhbGVHcm93
IEluYy4xFDASBgNVBAsMC1RLU1RPUk0uQ09NMRowGAYDVQQDDBFUZWNoIERldmVs
b3BtZW50LjCCASIwDQYJKoZIhvcNAQEBBQADggEPADCCAQoCggEBANVQwXNUvHe0
AktWqAZxoDKcBDwxbQ0kQH+em5ywaZJ+hwb6dw3EvykRwaQXLU9yWfjlY82Qoein
RwUf2nh8pTpmqnWnY2Q7GYwWrgxfb7L+zZ7RJCt6pLOKPkBK8+aUEfynEPvgOh91
RFZe+tw4GdtxaVGy70vNDp6IblCKvMOD6n++VdOPN0CNevlWeX44oJhshFK1zLx1
PzGfWbTQeccUqj6IIdMDkWUIjPv7tLyELtJkm/9eWHTLqR2QA7FjET/GUGHafDXx
4sI6V5aICdLXRH/hrIMPAztiz/LNaSFpV7h31D8KUuKnCSemffEfkC/V41inzVaW
VJbvqJSHQJsCAwEAAaOBwTCBvjAdBgNVHQ4EFgQUGN4nE0vYOCbgjql/0kPmxjX9
YPswHwYDVR0jBBgwFoAUtNOQhq52CINa3lnxyDZE+Hbh/YUwCQYDVR0TBAIwADAL
BgNVHQ8EBAMCBaAwNgYDVR0RBC8wLYIKdGtzdG9ybS5jY4IOd3d3LnRrc3Rvcm0u
Y2OCD21haWwudGtzdG9ybS5jYzAsBglghkgBhvhCAQ0EHxYdT3BlblNTTCBHZW5l
cmF0ZWQgQ2VydGlmaWNhdGUwDQYJKoZIhvcNAQELBQADgYEAb5kNK9qGAPj+Dlqj
n/LfDX7K9COyz6wgxw4y17jPRu0pK4CwgYsHUMgYnOd8M1om1QOw4k5FKjF6uGfK
C300giYmneQFvQW8cd5r1pk3+IlcAn075RcNl5C84Vx4xhn3/XGt95U8wkyTjEaj
rFB1mleAISx/uGwn6VbgIWTaS9s=
-----END CERTIFICATE-----
