Certificate:
    Data:
        Version: 3 (0x2)
        Serial Number: 2 (0x2)
    Signature Algorithm: sha256WithRSAEncryption
        Issuer: C=CN, ST=GD, L=ShenZhen, O=GlobaleGrow Inc., OU=TKSTORM.COM, CN=TK.ROOT CA/emailAddress=tkstorm1988@gmail.com
        Validity
            Not Before: Apr 28 03:41:33 2019 GMT
            Not After : Jan 22 03:41:33 2022 GMT
        Subject: C=CN, ST=GD, L=ShenZhen, O=GlobaleGrow Inc., OU=Tech Development., CN=TK Server Development
        Subject Public Key Info:
            Public Key Algorithm: rsaEncryption
                Public-Key: (2048 bit)
                Modulus:
                    00:b5:92:d3:9a:d3:82:16:ff:5a:f1:1e:22:5e:ca:
                    1c:1a:c8:31:4d:21:47:69:e3:17:65:83:22:7c:77:
                    02:1e:e2:6c:1a:da:cc:98:b4:62:f3:34:38:f0:f5:
                    23:6e:ec:82:60:5c:df:90:30:8d:ac:0d:57:da:86:
                    0b:18:7b:09:54:d4:d1:9f:ee:94:16:9f:50:ef:3a:
                    7e:e4:65:30:25:ef:90:a8:74:82:32:a4:da:66:59:
                    1a:9a:3c:ac:95:55:d0:72:6a:23:4c:be:7e:7f:81:
                    ff:af:a9:ef:7c:37:7a:b4:17:e1:61:14:88:d0:5d:
                    d2:97:ba:e0:e1:d2:83:a1:a8:4a:a9:a8:52:0f:3a:
                    97:6f:68:22:c2:f3:6f:5b:6c:3d:2b:a1:2e:22:05:
                    02:de:fe:d2:ae:4a:22:46:a7:e8:23:20:df:b9:7d:
                    55:01:03:46:9e:c7:65:f3:41:9e:68:46:97:88:34:
                    90:a2:fe:c4:e7:ab:9e:8d:28:92:90:9d:05:4d:fa:
                    14:82:98:43:a1:96:a9:8d:0d:7b:0b:c2:b7:9d:8f:
                    27:45:1f:1a:07:66:97:f8:9c:82:7f:03:e9:7e:02:
                    55:b7:20:5d:3a:27:99:25:dd:38:16:1e:46:af:fa:
                    36:3d:5b:6f:1f:d0:33:46:e7:7e:80:32:ec:63:0f:
                    38:7d
                Exponent: 65537 (0x10001)
        X509v3 extensions:
            X509v3 Subject Key Identifier: 
                39:27:77:6F:63:FF:7E:77:A3:51:E8:A7:8F:F9:CB:20:92:83:E6:F0
            X509v3 Authority Key Identifier: 
                keyid:B4:D3:90:86:AE:76:08:83:5A:DE:59:F1:C8:36:44:F8:76:E1:FD:85

            X509v3 Basic Constraints: 
                CA:FALSE
            X509v3 Key Usage: 
                Digital Signature, Key Encipherment
            X509v3 Subject Alternative Name: 
                IP Address:127.0.0.1, DNS:localhost, DNS:www.tkstorm.cc, DNS:tkstorm.cc
    Signature Algorithm: sha256WithRSAEncryption
         7e:a4:fa:5e:5b:29:72:2b:ec:57:6e:3d:a8:8c:4b:02:ee:fd:
         0f:f7:b2:59:38:6a:7e:95:4e:53:6f:0c:79:1d:51:aa:db:e2:
         2d:23:7d:da:c2:c0:02:45:11:76:49:8d:a2:50:c3:53:35:c9:
         7f:f8:ea:94:eb:95:bc:ad:5b:69:59:80:ae:7f:e3:98:fe:73:
         2b:6e:3a:3e:b0:1c:1a:39:ae:c4:a1:59:30:c7:97:b9:f4:8f:
         04:c1:08:d2:98:f8:72:cc:14:93:cb:8a:d5:f3:7c:4e:76:b0:
         cf:ad:77:02:d7:39:ac:b6:78:39:aa:d0:2a:aa:d7:af:8e:4c:
         9d:d4
-----BEGIN CERTIFICATE-----
MIIDrTCCAxagAwIBAgIBAjANBgkqhkiG9w0BAQsFADCBmTELMAkGA1UEBhMCQ04x
CzAJBgNVBAgMAkdEMREwDwYDVQQHDAhTaGVuWmhlbjEZMBcGA1UECgwQR2xvYmFs
ZUdyb3cgSW5jLjEUMBIGA1UECwwLVEtTVE9STS5DT00xEzARBgNVBAMMClRLLlJP
T1QgQ0ExJDAiBgkqhkiG9w0BCQEWFXRrc3Rvcm0xOTg4QGdtYWlsLmNvbTAeFw0x
OTA0MjgwMzQxMzNaFw0yMjAxMjIwMzQxMzNaMIGEMQswCQYDVQQGEwJDTjELMAkG
A1UECAwCR0QxETAPBgNVBAcMCFNoZW5aaGVuMRkwFwYDVQQKDBBHbG9iYWxlR3Jv
dyBJbmMuMRowGAYDVQQLDBFUZWNoIERldmVsb3BtZW50LjEeMBwGA1UEAwwVVEsg
U2VydmVyIERldmVsb3BtZW50MIIBIjANBgkqhkiG9w0BAQEFAAOCAQ8AMIIBCgKC
AQEAtZLTmtOCFv9a8R4iXsocGsgxTSFHaeMXZYMifHcCHuJsGtrMmLRi8zQ48PUj
buyCYFzfkDCNrA1X2oYLGHsJVNTRn+6UFp9Q7zp+5GUwJe+QqHSCMqTaZlkamjys
lVXQcmojTL5+f4H/r6nvfDd6tBfhYRSI0F3Sl7rg4dKDoahKqahSDzqXb2giwvNv
W2w9K6EuIgUC3v7SrkoiRqfoIyDfuX1VAQNGnsdl80GeaEaXiDSQov7E56uejSiS
kJ0FTfoUgphDoZapjQ17C8K3nY8nRR8aB2aX+JyCfwPpfgJVtyBdOieZJd04Fh5G
r/o2PVtvH9AzRud+gDLsYw84fQIDAQABo4GTMIGQMB0GA1UdDgQWBBQ5J3dvY/9+
d6NR6KeP+csgkoPm8DAfBgNVHSMEGDAWgBS005CGrnYIg1reWfHINkT4duH9hTAJ
BgNVHRMEAjAAMAsGA1UdDwQEAwIFoDA2BgNVHREELzAthwR/AAABgglsb2NhbGhv
c3SCDnd3dy50a3N0b3JtLmNjggp0a3N0b3JtLmNjMA0GCSqGSIb3DQEBCwUAA4GB
AH6k+l5bKXIr7FduPaiMSwLu/Q/3slk4an6VTlNvDHkdUarb4i0jfdrCwAJFEXZJ
jaJQw1M1yX/46pTrlbytW2lZgK5/45j+cytuOj6wHBo5rsShWTDHl7n0jwTBCNKY
+HLMFJPLitXzfE52sM+tdwLXOay2eDmq0Cqq16+OTJ3U
-----END CERTIFICATE-----
